; Function Attrs: nounwind uwtable
define internal fastcc range(i32 -1, 1) i32 @read_py_ptr(i32 noundef %0, i64 noundef %1, ptr noundef nonnull %2) unnamed_addr #0 {
  %4 = alloca [1 x %struct.iovec], align 16
  %5 = alloca [1 x %struct.iovec], align 16
  call void @llvm.lifetime.start.p0(i64 16, ptr nonnull %4) #9
  call void @llvm.lifetime.start.p0(i64 16, ptr nonnull %5) #9
  %6 = getelementptr inbounds nuw i8, ptr %4, i64 8
  %7 = getelementptr inbounds nuw i8, ptr %5, i64 8
  br label %8

8:                                                ; preds = %17, %3
  %.0.i.i = phi i64 [ 0, %3 ], [ %18, %17 ]
  %9 = getelementptr i8, ptr %2, i64 %.0.i.i
  store ptr %9, ptr %4, align 16, !tbaa !29
  %10 = sub i64 8, %.0.i.i
  store i64 %10, ptr %6, align 8, !tbaa !32
  %11 = add i64 %.0.i.i, %1
  %12 = inttoptr i64 %11 to ptr
  store ptr %12, ptr %5, align 16, !tbaa !29
  store i64 %10, ptr %7, align 8, !tbaa !32
  %13 = call i64 @process_vm_readv(i32 noundef %0, ptr noundef nonnull %4, i64 noundef 1, ptr noundef nonnull %5, i64 noundef 1, i64 noundef 0) #9
  %14 = icmp slt i64 %13, 0
  br i1 %14, label %read_ptr.exit.thread, label %17

read_ptr.exit.thread:                             ; preds = %8
  %15 = load ptr, ptr @PyExc_OSError, align 8, !tbaa !33
  %16 = call ptr @PyErr_SetFromErrno(ptr noundef %15) #9
  call void @llvm.lifetime.end.p0(i64 16, ptr nonnull %5) #9
  call void @llvm.lifetime.end.p0(i64 16, ptr nonnull %4) #9
  br label %23

17:                                               ; preds = %8
  %18 = add i64 %13, %.0.i.i
  %19 = load i64, ptr %6, align 8, !tbaa !32
  %.not.i.i = icmp eq i64 %13, %19
  br i1 %.not.i.i, label %read_ptr.exit, label %8, !llvm.loop !35

read_ptr.exit:                                    ; preds = %17
  call void @llvm.lifetime.end.p0(i64 16, ptr nonnull %5) #9
  call void @llvm.lifetime.end.p0(i64 16, ptr nonnull %4) #9
  %.mask = and i64 %18, 2147483648
  %.not = icmp eq i64 %.mask, 0
  br i1 %.not, label %20, label %23

20:                                               ; preds = %read_ptr.exit
  %21 = load i64, ptr %2, align 8, !tbaa !8
  %22 = and i64 %21, -2
  store i64 %22, ptr %2, align 8, !tbaa !8
  br label %23

23:                                               ; preds = %read_ptr.exit.thread, %read_ptr.exit, %20
  %.0 = phi i32 [ 0, %20 ], [ -1, %read_ptr.exit ], [ -1, %read_ptr.exit.thread ]
  ret i32 %.0
}